target datalayout = "e-m:e-p270:32:32-p271:32:32-p272:64:64-i64:64-i128:128-f80:128-n8:16:32:64-S128"
target triple = "x86_64-pc-linux-gnu"

%struct.gfxinfo = type { i32, i32, i32, i32 }

@.str.45 = private unnamed_addr constant [69 x i8] c"JPEG2000 codestream corrupt(Expected SIZ marker not found after SOC)\00", align 1

; Function Attrs: nounwind uwtable
define internal i32 @php_read4(ptr noundef %0) #0 {
  %2 = alloca i32, align 4
  %3 = alloca ptr, align 8
  %4 = alloca [4 x i8], align 1
  store ptr %0, ptr %3, align 8
  %5 = load ptr, ptr %3, align 8
  %6 = getelementptr inbounds [4 x i8], ptr %4, i64 0, i64 0
  %7 = call i64 @_php_stream_read(ptr noundef %5, ptr noundef %6, i64 noundef 4)
  %8 = icmp ne i64 %7, 4
  br i1 %8, label %9, label %10

9:                                                ; preds = %1
  store i32 0, ptr %2, align 4
  br label %29

10:                                               ; preds = %1
  %11 = getelementptr inbounds [4 x i8], ptr %4, i64 0, i64 0
  %12 = load i8, ptr %11, align 1
  %13 = zext i8 %12 to i32
  %14 = shl i32 %13, 24
  %15 = getelementptr inbounds [4 x i8], ptr %4, i64 0, i64 1
  %16 = load i8, ptr %15, align 1
  %17 = zext i8 %16 to i32
  %18 = shl i32 %17, 16
  %19 = add i32 %14, %18
  %20 = getelementptr inbounds [4 x i8], ptr %4, i64 0, i64 2
  %21 = load i8, ptr %20, align 1
  %22 = zext i8 %21 to i32
  %23 = shl i32 %22, 8
  %24 = add i32 %19, %23
  %25 = getelementptr inbounds [4 x i8], ptr %4, i64 0, i64 3
  %26 = load i8, ptr %25, align 1
  %27 = zext i8 %26 to i32
  %28 = add i32 %24, %27
  store i32 %28, ptr %2, align 4
  br label %29

29:                                               ; preds = %10, %9
  %30 = load i32, ptr %2, align 4
  ret i32 %30
}

; Function Attrs: nounwind uwtable
define internal zeroext i16 @php_read2(ptr noundef %0) #0 {
  %2 = alloca i16, align 2
  %3 = alloca ptr, align 8
  %4 = alloca [2 x i8], align 1
  store ptr %0, ptr %3, align 8
  %5 = load ptr, ptr %3, align 8
  %6 = getelementptr inbounds [2 x i8], ptr %4, i64 0, i64 0
  %7 = call i64 @_php_stream_read(ptr noundef %5, ptr noundef %6, i64 noundef 2)
  %8 = icmp ult i64 %7, 2
  br i1 %8, label %9, label %10

9:                                                ; preds = %1
  store i16 0, ptr %2, align 2
  br label %22

10:                                               ; preds = %1
  %11 = getelementptr inbounds [2 x i8], ptr %4, i64 0, i64 0
  %12 = load i8, ptr %11, align 1
  %13 = zext i8 %12 to i16
  %14 = zext i16 %13 to i32
  %15 = shl i32 %14, 8
  %16 = getelementptr inbounds [2 x i8], ptr %4, i64 0, i64 1
  %17 = load i8, ptr %16, align 1
  %18 = zext i8 %17 to i16
  %19 = zext i16 %18 to i32
  %20 = add nsw i32 %15, %19
  %21 = trunc i32 %20 to i16
  store i16 %21, ptr %2, align 2
  br label %22

22:                                               ; preds = %10, %9
  %23 = load i16, ptr %2, align 2
  ret i16 %23
}

; Function Attrs: nounwind uwtable
define internal ptr @php_handle_jpc(ptr noundef %0) #0 {
  %2 = alloca ptr, align 8
  %3 = alloca ptr, align 8
  %4 = alloca ptr, align 8
  %5 = alloca i32, align 4
  %6 = alloca i32, align 4
  %7 = alloca i8, align 1
  %8 = alloca i32, align 4
  store ptr %0, ptr %3, align 8
  store ptr null, ptr %4, align 8
  %9 = load ptr, ptr %3, align 8
  %10 = call i32 @_php_stream_getc(ptr noundef %9)
  %11 = trunc i32 %10 to i8
  store i8 %11, ptr %7, align 1
  %12 = load i8, ptr %7, align 1
  %13 = zext i8 %12 to i32
  %14 = icmp ne i32 %13, 81
  br i1 %14, label %15, label %16

15:                                               ; preds = %1
  call void (ptr, i32, ptr, ...) @php_error_docref(ptr noundef null, i32 noundef 2, ptr noundef @.str.45)
  store ptr null, ptr %2, align 8
  br label %85

16:                                               ; preds = %1
  %17 = call noalias ptr @_ecalloc(i64 noundef 1, i64 noundef 16) #14
  store ptr %17, ptr %4, align 8
  %18 = load ptr, ptr %3, align 8
  %19 = call zeroext i16 @php_read2(ptr noundef %18)
  %20 = load ptr, ptr %3, align 8
  %21 = call zeroext i16 @php_read2(ptr noundef %20)
  %22 = load ptr, ptr %3, align 8
  %23 = call i32 @php_read4(ptr noundef %22)
  %24 = load ptr, ptr %4, align 8
  %25 = getelementptr inbounds %struct.gfxinfo, ptr %24, i32 0, i32 0
  store i32 %23, ptr %25, align 4
  %26 = load ptr, ptr %3, align 8
  %27 = call i32 @php_read4(ptr noundef %26)
  %28 = load ptr, ptr %4, align 8
  %29 = getelementptr inbounds %struct.gfxinfo, ptr %28, i32 0, i32 1
  store i32 %27, ptr %29, align 4
  %30 = load ptr, ptr %3, align 8
  %31 = call i32 @_php_stream_seek(ptr noundef %30, i64 noundef 24, i32 noundef 1)
  %32 = icmp ne i32 %31, 0
  br i1 %32, label %33, label %35

33:                                               ; preds = %16
  %34 = load ptr, ptr %4, align 8
  call void @_efree(ptr noundef %34)
  store ptr null, ptr %2, align 8
  br label %85

35:                                               ; preds = %16
  %36 = load ptr, ptr %3, align 8
  %37 = call zeroext i16 @php_read2(ptr noundef %36)
  %38 = zext i16 %37 to i32
  %39 = load ptr, ptr %4, align 8
  %40 = getelementptr inbounds %struct.gfxinfo, ptr %39, i32 0, i32 3
  store i32 %38, ptr %40, align 4
  %41 = load ptr, ptr %4, align 8
  %42 = getelementptr inbounds %struct.gfxinfo, ptr %41, i32 0, i32 3
  %43 = load i32, ptr %42, align 4
  %44 = icmp eq i32 %43, 0
  br i1 %44, label %45, label %48

45:                                               ; preds = %35
  %46 = load ptr, ptr %3, align 8
  %47 = call zeroext i1 @_php_stream_eof(ptr noundef %46)
  br i1 %47, label %53, label %48

48:                                               ; preds = %45, %35
  %49 = load ptr, ptr %4, align 8
  %50 = getelementptr inbounds %struct.gfxinfo, ptr %49, i32 0, i32 3
  %51 = load i32, ptr %50, align 4
  %52 = icmp ugt i32 %51, 256
  br i1 %52, label %53, label %55

53:                                               ; preds = %48, %45
  %54 = load ptr, ptr %4, align 8
  call void @_efree(ptr noundef %54)
  store ptr null, ptr %2, align 8
  br label %85

55:                                               ; preds = %48
  store i32 0, ptr %5, align 4
  store i32 0, ptr %8, align 4
  br label %56

56:                                               ; preds = %77, %55
  %57 = load i32, ptr %8, align 4
  %58 = load ptr, ptr %4, align 8
  %59 = getelementptr inbounds %struct.gfxinfo, ptr %58, i32 0, i32 3
  %60 = load i32, ptr %59, align 4
  %61 = icmp ult i32 %57, %60
  br i1 %61, label %62, label %80

62:                                               ; preds = %56
  %63 = load ptr, ptr %3, align 8
  %64 = call i32 @_php_stream_getc(ptr noundef %63)
  store i32 %64, ptr %6, align 4
  %65 = load i32, ptr %6, align 4
  %66 = add nsw i32 %65, 1
  store i32 %66, ptr %6, align 4
  %67 = load i32, ptr %6, align 4
  %68 = load i32, ptr %5, align 4
  %69 = icmp sgt i32 %67, %68
  br i1 %69, label %70, label %72

70:                                               ; preds = %62
  %71 = load i32, ptr %6, align 4
  store i32 %71, ptr %5, align 4
  br label %72

72:                                               ; preds = %70, %62
  %73 = load ptr, ptr %3, align 8
  %74 = call i32 @_php_stream_getc(ptr noundef %73)
  %75 = load ptr, ptr %3, align 8
  %76 = call i32 @_php_stream_getc(ptr noundef %75)
  br label %77

77:                                               ; preds = %72
  %78 = load i32, ptr %8, align 4
  %79 = add i32 %78, 1
  store i32 %79, ptr %8, align 4
  br label %56

80:                                               ; preds = %56
  %81 = load i32, ptr %5, align 4
  %82 = load ptr, ptr %4, align 8
  %83 = getelementptr inbounds %struct.gfxinfo, ptr %82, i32 0, i32 2
  store i32 %81, ptr %83, align 4
  %84 = load ptr, ptr %4, align 8
  store ptr %84, ptr %2, align 8
  br label %85

85:                                               ; preds = %80, %53, %33, %15
  %86 = load ptr, ptr %2, align 8
  ret ptr %86
}