; Function Attrs: nounwind uwtable
define internal fastcc noundef ptr @php_handle_jpc(ptr noundef %0) unnamed_addr #0 {
  %2 = alloca [2 x i8], align 1
  %3 = alloca [4 x i8], align 1
  %4 = alloca [4 x i8], align 1
  %5 = alloca [2 x i8], align 1
  %6 = alloca [2 x i8], align 1
  %7 = tail call i32 @_php_stream_getc(ptr noundef %0) #13
  %8 = and i32 %7, 255
  %.not = icmp eq i32 %8, 81
  br i1 %.not, label %10, label %9

9:                                                ; preds = %1
  tail call void (ptr, i32, ptr, ...) @php_error_docref(ptr noundef null, i32 noundef 2, ptr noundef nonnull @.str.45) #13
  br label %82

10:                                               ; preds = %1
  %11 = tail call noalias dereferenceable_or_null(16) ptr @_ecalloc(i64 noundef 1, i64 noundef 16) #16
  call void @llvm.lifetime.start.p0(i64 2, ptr nonnull %6)
  %12 = call i64 @_php_stream_read(ptr noundef %0, ptr noundef nonnull %6, i64 noundef 2) #13
  call void @llvm.lifetime.end.p0(i64 2, ptr nonnull %6)
  call void @llvm.lifetime.start.p0(i64 2, ptr nonnull %5)
  %13 = call i64 @_php_stream_read(ptr noundef %0, ptr noundef nonnull %5, i64 noundef 2) #13
  call void @llvm.lifetime.end.p0(i64 2, ptr nonnull %5)
  call void @llvm.lifetime.start.p0(i64 4, ptr nonnull %4)
  %14 = call i64 @_php_stream_read(ptr noundef %0, ptr noundef nonnull %4, i64 noundef 4) #13
  %.not.i = icmp eq i64 %14, 4
  br i1 %.not.i, label %15, label %php_read4.exit

15:                                               ; preds = %10
  %16 = load i8, ptr %4, align 1
  %17 = zext i8 %16 to i32
  %18 = shl nuw i32 %17, 24
  %19 = getelementptr inbounds i8, ptr %4, i64 1
  %20 = load i8, ptr %19, align 1
  %21 = zext i8 %20 to i32
  %22 = shl nuw nsw i32 %21, 16
  %23 = or disjoint i32 %22, %18
  %24 = getelementptr inbounds i8, ptr %4, i64 2
  %25 = load i8, ptr %24, align 1
  %26 = zext i8 %25 to i32
  %27 = shl nuw nsw i32 %26, 8
  %28 = or disjoint i32 %23, %27
  %29 = getelementptr inbounds i8, ptr %4, i64 3
  %30 = load i8, ptr %29, align 1
  %31 = zext i8 %30 to i32
  %32 = or disjoint i32 %28, %31
  br label %php_read4.exit

php_read4.exit:                                   ; preds = %10, %15
  %.0.i35 = phi i32 [ %32, %15 ], [ 0, %10 ]
  call void @llvm.lifetime.end.p0(i64 4, ptr nonnull %4)
  store i32 %.0.i35, ptr %11, align 4
  call void @llvm.lifetime.start.p0(i64 4, ptr nonnull %3)
  %33 = call i64 @_php_stream_read(ptr noundef %0, ptr noundef nonnull %3, i64 noundef 4) #13
  %.not.i36 = icmp eq i64 %33, 4
  br i1 %.not.i36, label %34, label %php_read4.exit38

34:                                               ; preds = %php_read4.exit
  %35 = load i8, ptr %3, align 1
  %36 = zext i8 %35 to i32
  %37 = shl nuw i32 %36, 24
  %38 = getelementptr inbounds i8, ptr %3, i64 1
  %39 = load i8, ptr %38, align 1
  %40 = zext i8 %39 to i32
  %41 = shl nuw nsw i32 %40, 16
  %42 = or disjoint i32 %41, %37
  %43 = getelementptr inbounds i8, ptr %3, i64 2
  %44 = load i8, ptr %43, align 1
  %45 = zext i8 %44 to i32
  %46 = shl nuw nsw i32 %45, 8
  %47 = or disjoint i32 %42, %46
  %48 = getelementptr inbounds i8, ptr %3, i64 3
  %49 = load i8, ptr %48, align 1
  %50 = zext i8 %49 to i32
  %51 = or disjoint i32 %47, %50
  br label %php_read4.exit38

php_read4.exit38:                                 ; preds = %php_read4.exit, %34
  %.0.i37 = phi i32 [ %51, %34 ], [ 0, %php_read4.exit ]
  call void @llvm.lifetime.end.p0(i64 4, ptr nonnull %3)
  %52 = getelementptr inbounds i8, ptr %11, i64 4
  store i32 %.0.i37, ptr %52, align 4
  %53 = call i32 @_php_stream_seek(ptr noundef %0, i64 noundef 24, i32 noundef 1) #13
  %.not32 = icmp eq i32 %53, 0
  br i1 %.not32, label %55, label %54

54:                                               ; preds = %php_read4.exit38
  call void @_efree(ptr noundef nonnull %11) #13
  br label %82

55:                                               ; preds = %php_read4.exit38
  call void @llvm.lifetime.start.p0(i64 2, ptr nonnull %2)
  %56 = call i64 @_php_stream_read(ptr noundef %0, ptr noundef nonnull %2, i64 noundef 2) #13
  %57 = icmp ult i64 %56, 2
  %58 = load i8, ptr %2, align 1
  %59 = zext i8 %58 to i16
  %60 = shl nuw i16 %59, 8
  %61 = getelementptr inbounds i8, ptr %2, i64 1
  %62 = load i8, ptr %61, align 1
  %63 = zext i8 %62 to i16
  %64 = or disjoint i16 %60, %63
  %.0.i39 = select i1 %57, i16 0, i16 %64
  call void @llvm.lifetime.end.p0(i64 2, ptr nonnull %2)
  %65 = zext i16 %.0.i39 to i32
  %66 = getelementptr inbounds i8, ptr %11, i64 12
  store i32 %65, ptr %66, align 4
  %67 = icmp eq i16 %.0.i39, 0
  br i1 %67, label %68, label %70

68:                                               ; preds = %55
  %69 = call zeroext i1 @_php_stream_eof(ptr noundef %0) #13
  br i1 %69, label %73, label %thread-pre-split

thread-pre-split:                                 ; preds = %68
  %.pr = load i32, ptr %66, align 4
  br label %70

70:                                               ; preds = %thread-pre-split, %55
  %71 = phi i32 [ %.pr, %thread-pre-split ], [ %65, %55 ]
  %72 = icmp ugt i32 %71, 256
  br i1 %72, label %73, label %.preheader

.preheader:                                       ; preds = %70
  %.not42 = icmp eq i32 %71, 0
  br i1 %.not42, label %._crit_edge, label %.lr.ph

73:                                               ; preds = %70, %68
  call void @_efree(ptr noundef nonnull %11) #13
  br label %82

.lr.ph:                                           ; preds = %.preheader, %.lr.ph
  %.041 = phi i32 [ %78, %.lr.ph ], [ 0, %.preheader ]
  %.03040 = phi i32 [ %spec.select, %.lr.ph ], [ 0, %.preheader ]
  %74 = call i32 @_php_stream_getc(ptr noundef %0) #13
  %.not33 = icmp slt i32 %74, %.03040
  %75 = add nsw i32 %74, 1
  %spec.select = select i1 %.not33, i32 %.03040, i32 %75
  %76 = call i32 @_php_stream_getc(ptr noundef %0) #13
  %77 = call i32 @_php_stream_getc(ptr noundef %0) #13
  %78 = add nuw i32 %.041, 1
  %79 = load i32, ptr %66, align 4
  %80 = icmp ult i32 %78, %79
  br i1 %80, label %.lr.ph, label %._crit_edge

._crit_edge:                                      ; preds = %.lr.ph, %.preheader
  %.030.lcssa = phi i32 [ 0, %.preheader ], [ %spec.select, %.lr.ph ]
  %81 = getelementptr inbounds i8, ptr %11, i64 8
  store i32 %.030.lcssa, ptr %81, align 4
  br label %82

82:                                               ; preds = %._crit_edge, %73, %54, %9
  %.029 = phi ptr [ null, %9 ], [ null, %54 ], [ null, %73 ], [ %11, %._crit_edge ]
  ret ptr %.029
}